(dp0
S'nya87@jabber.ru/Foobar-\xd0\x9f\xd0\x9a'
p1
(c__builtin__
set
p2
((lp3
(V2-ch.ru
p4
Vb
p5
V8882027.html
p6
tp7
a(V2-ch.ru
p8
Vb
p9
V8881067.html
p10
tp11
atp12
Rp13
(dp14
(g4
g5
g6
tp15
(I8883974
V\u043f\u0440\u043e \u0434\u0435\u0431\u0438\u043b\u0430
p16
tp17
s(g8
g9
g10
tp18
(I8884073
V\u0431\u0430\u0442\u0442\u0445\u0435\u0440\u0442 \u0436\u0438\u0440\u043e\u0431\u0430\u0441\u0430
p19
tp20
stp21
s.